; Function Attrs: mustprogress uwtable
define void @_ZNK6casadi3Dot7eval_mxERKSt6vectorINS_2MXESaIS2_EERS4_(ptr nonnull readnone align 8 captures(none) %0, ptr noundef nonnull readonly align 8 captures(none) dereferenceable(24) %1, ptr noundef nonnull readonly align 8 captures(none) dereferenceable(24) %2) unnamed_addr #3 align 2 personality ptr @__gxx_personality_v0 {
  %4 = alloca %"class.casadi::MX", align 8
  call void @llvm.lifetime.start.p0(i64 8, ptr nonnull %4) #20
  %5 = load ptr, ptr %1, align 8, !tbaa !37
  %6 = tail call noundef ptr @_ZNK6casadi2MXptEv(ptr noundef nonnull align 8 dereferenceable(8) %5)
  %7 = load ptr, ptr %1, align 8, !tbaa !37
  %8 = getelementptr inbounds nuw i8, ptr %7, i64 8
  %9 = load ptr, ptr %6, align 8, !tbaa !3
  %10 = getelementptr inbounds nuw i8, ptr %9, i64 832
  %11 = load ptr, ptr %10, align 8
  call void %11(ptr dead_on_unwind nonnull writable sret(%"class.casadi::MX") align 8 %4, ptr noundef nonnull align 8 dereferenceable(64) %6, ptr noundef nonnull align 8 dereferenceable(8) %8)
  %12 = load ptr, ptr %2, align 8, !tbaa !37
  %13 = invoke noundef nonnull align 8 dereferenceable(8) ptr @_ZN6casadi13GenericSharedINS_12SharedObjectENS_20SharedObjectInternalEEaSERKS3_(ptr noundef nonnull align 8 dereferenceable(8) %12, ptr noundef nonnull align 8 dereferenceable(8) %4)
          to label %_ZN6casadi2MXaSERKS0_.exit unwind label %14

_ZN6casadi2MXaSERKS0_.exit:                       ; preds = %3
  call void @_ZN6casadi2MXD1Ev(ptr noundef nonnull align 8 dereferenceable(8) %4) #20
  call void @llvm.lifetime.end.p0(i64 8, ptr nonnull %4) #20
  ret void

14:                                               ; preds = %3
  %15 = landingpad { ptr, i32 }
          cleanup
  call void @_ZN6casadi2MXD1Ev(ptr noundef nonnull align 8 dereferenceable(8) %4) #20
  call void @llvm.lifetime.end.p0(i64 8, ptr nonnull %4) #20
  resume { ptr, i32 } %15
}